target datalayout = "e-m:e-p270:32:32-p271:32:32-p272:64:64-i64:64-i128:128-f80:128-n8:16:32:64-S128"
target triple = "x86_64-pc-linux-gnu"

%"class.folly::Range" = type { ptr, ptr }
%"class.folly::AsyncFileWriter" = type { %"class.folly::AsyncLogWriter", %"class.folly::File" }
%"class.folly::AsyncLogWriter" = type { %"class.folly::LogWriter", %"struct.folly::Synchronized", %"class.std::condition_variable", %"class.std::condition_variable", %"class.folly::LockedPtr" }
%"class.folly::LogWriter" = type { ptr }
%"struct.folly::Synchronized" = type { %"struct.folly::AsyncLogWriter::Data", %"class.std::mutex" }
%"struct.folly::AsyncLogWriter::Data" = type { %"struct.std::array", i32, i64, i64, i64, i64, %"class.std::thread" }
%"struct.std::array" = type { [2 x %"class.std::vector"] }
%"class.std::vector" = type { %"struct.std::_Vector_base" }
%"struct.std::_Vector_base" = type { %"struct.std::_Vector_base<std::__cxx11::basic_string<char>, std::allocator<std::__cxx11::basic_string<char>>>::_Vector_impl" }
%"struct.std::_Vector_base<std::__cxx11::basic_string<char>, std::allocator<std::__cxx11::basic_string<char>>>::_Vector_impl" = type { %"struct.std::_Vector_base<std::__cxx11::basic_string<char>, std::allocator<std::__cxx11::basic_string<char>>>::_Vector_impl_data" }
%"struct.std::_Vector_base<std::__cxx11::basic_string<char>, std::allocator<std::__cxx11::basic_string<char>>>::_Vector_impl_data" = type { ptr, ptr, ptr }
%"class.std::thread" = type { %"class.std::thread::id" }
%"class.std::thread::id" = type { i64 }
%"class.std::mutex" = type { %"class.std::__mutex_base" }
%"class.std::__mutex_base" = type { %union.pthread_mutex_t }
%union.pthread_mutex_t = type { %struct.__pthread_mutex_s }
%struct.__pthread_mutex_s = type { i32, i32, i32, i32, i32, i16, i16, %struct.__pthread_internal_list }
%struct.__pthread_internal_list = type { ptr, ptr }
%"class.std::condition_variable" = type { %"class.std::__condvar" }
%"class.std::__condvar" = type { %union.pthread_cond_t }
%union.pthread_cond_t = type { %struct.__pthread_cond_s }
%struct.__pthread_cond_s = type { %union.__atomic_wide_counter, %union.__atomic_wide_counter, [2 x i32], [2 x i32], i32, i32, [2 x i32] }
%union.__atomic_wide_counter = type { i64 }
%"class.folly::LockedPtr" = type { %"class.std::unique_lock" }
%"class.std::unique_lock" = type <{ ptr, i8, [7 x i8] }>
%"class.folly::File" = type <{ i32, i8, [3 x i8] }>
%"class.folly::basic_fbstring" = type { %"class.folly::fbstring_core" }
%"class.folly::fbstring_core" = type { %union.anon.5 }
%union.anon.5 = type { %"struct.folly::fbstring_core<char>::MediumLarge" }
%"struct.folly::fbstring_core<char>::MediumLarge" = type { ptr, i64, i64 }

@_ZTISt9exception = external constant ptr
@.str.5 = private unnamed_addr constant [123 x i8] c"generated/home/dtcxzyw/WorkSpace/Projects/compilers/llvm-opt-benchmark/bench/folly/folly/folly/logging/AsyncFileWriter.cpp\00", align 1
@.str.6 = private unnamed_addr constant [27 x i8] c"error writing to log file \00", align 1
@.str.7 = private unnamed_addr constant [22 x i8] c" in AsyncFileWriter: \00", align 1

; Function Attrs: mustprogress nounwind uwtable
define linkonce_odr noundef zeroext i8 @_ZNK5folly13fbstring_coreIcE8categoryEv(ptr noundef nonnull align 8 dereferenceable(24) %0) #0 comdat align 2 {
  %2 = alloca ptr, align 8
  store ptr %0, ptr %2, align 8, !tbaa !95
  %3 = load ptr, ptr %2, align 8
  %4 = getelementptr inbounds nuw %"class.folly::fbstring_core", ptr %3, i32 0, i32 0
  %5 = getelementptr inbounds nuw [24 x i8], ptr %4, i64 0, i64 23
  %6 = load i8, ptr %5, align 1, !tbaa !49
  %7 = zext i8 %6 to i32
  %8 = and i32 %7, 192
  %9 = trunc i32 %8 to i8
  ret i8 %9
}

; Function Attrs: mustprogress nounwind uwtable
define linkonce_odr noundef i64 @_ZN5folly6detail25constexpr_strlen_internalIcLm0EEEmPKT_i(ptr noundef %0, i32 noundef %1) #0 comdat {
  %3 = alloca ptr, align 8
  %4 = alloca i32, align 4
  store ptr %0, ptr %3, align 8, !tbaa !36
  store i32 %1, ptr %4, align 4, !tbaa !16
  %5 = load ptr, ptr %3, align 8, !tbaa !36
  %6 = call i64 @strlen(ptr noundef %5) #21
  ret i64 %6
}

; Function Attrs: mustprogress nounwind uwtable
define linkonce_odr void @_ZN5folly13fbstring_coreIcED2Ev(ptr noundef nonnull align 8 dereferenceable(24) %0) unnamed_addr #0 comdat align 2 {
  %2 = alloca ptr, align 8
  store ptr %0, ptr %2, align 8, !tbaa !95
  %3 = load ptr, ptr %2, align 8
  %4 = call noundef zeroext i8 @_ZNK5folly13fbstring_coreIcE8categoryEv(ptr noundef nonnull align 8 dereferenceable(24) %3)
  %5 = icmp eq i8 %4, 0
  br i1 %5, label %6, label %7

6:                                                ; preds = %1
  br label %8

7:                                                ; preds = %1
  call void @_ZN5folly13fbstring_coreIcE18destroyMediumLargeEv(ptr noundef nonnull align 8 dereferenceable(24) %3) #21
  br label %8

8:                                                ; preds = %7, %6
  ret void
}

; Function Attrs: mustprogress nounwind uwtable
define linkonce_odr noundef i64 @_ZN5folly16constexpr_strlenIcEEmPKT_(ptr noundef %0) #0 comdat {
  %2 = alloca ptr, align 8
  store ptr %0, ptr %2, align 8, !tbaa !36
  %3 = load ptr, ptr %2, align 8, !tbaa !36
  %4 = call noundef i64 @_ZN5folly6detail25constexpr_strlen_internalIcLm0EEEmPKT_i(ptr noundef %3, i32 noundef 0) #21
  ret i64 %4
}

; Function Attrs: mustprogress nounwind uwtable
define linkonce_odr void @_ZN5folly14basic_fbstringIcSt11char_traitsIcESaIcENS_13fbstring_coreIcEEED2Ev(ptr noundef nonnull align 8 dereferenceable(24) %0) unnamed_addr #0 comdat align 2 {
  %2 = alloca ptr, align 8
  store ptr %0, ptr %2, align 8, !tbaa !84
  %3 = load ptr, ptr %2, align 8
  %4 = getelementptr inbounds nuw %"class.folly::basic_fbstring", ptr %3, i32 0, i32 0
  call void @_ZN5folly13fbstring_coreIcED2Ev(ptr noundef nonnull align 8 dereferenceable(24) %4) #21
  ret void
}

; Function Attrs: mustprogress nounwind uwtable
define linkonce_odr noundef i32 @_ZNK5folly4File2fdEv(ptr noundef nonnull align 4 dereferenceable(5) %0) #0 comdat align 2 {
  %2 = alloca ptr, align 8
  store ptr %0, ptr %2, align 8, !tbaa !28
  %3 = load ptr, ptr %2, align 8
  %4 = getelementptr inbounds nuw %"class.folly::File", ptr %3, i32 0, i32 0
  %5 = load i32, ptr %4, align 4, !tbaa !53
  ret i32 %5
}

; Function Attrs: mustprogress nounwind uwtable
define linkonce_odr void @_ZN5folly5RangeIPKcEC2ES2_(ptr noundef nonnull align 8 dereferenceable(16) %0, ptr noundef %1) unnamed_addr #0 comdat align 2 {
  %3 = alloca ptr, align 8
  %4 = alloca ptr, align 8
  store ptr %0, ptr %3, align 8, !tbaa !26
  store ptr %1, ptr %4, align 8, !tbaa !36
  %5 = load ptr, ptr %3, align 8
  %6 = getelementptr inbounds nuw %"class.folly::Range", ptr %5, i32 0, i32 0
  %7 = load ptr, ptr %4, align 8, !tbaa !36
  store ptr %7, ptr %6, align 8, !tbaa !30
  %8 = getelementptr inbounds nuw %"class.folly::Range", ptr %5, i32 0, i32 1
  %9 = load ptr, ptr %4, align 8, !tbaa !36
  %10 = load ptr, ptr %4, align 8, !tbaa !36
  %11 = call noundef i64 @_ZN5folly16constexpr_strlenIcEEmPKT_(ptr noundef %10) #21
  %12 = getelementptr inbounds nuw i8, ptr %9, i64 %11
  store ptr %12, ptr %8, align 8, !tbaa !33
  ret void
}

; Function Attrs: mustprogress uwtable
define void @_ZN5folly15AsyncFileWriter9performIOERKSt6vectorINSt7__cxx1112basic_stringIcSt11char_traitsIcESaIcEEESaIS7_EEm(ptr noundef nonnull align 8 dereferenceable(264) %0, ptr noundef nonnull align 8 dereferenceable(24) %1, i64 noundef %2) unnamed_addr #2 align 2 personality ptr @__gxx_personality_v0 {
  %4 = alloca ptr, align 8
  %5 = alloca ptr, align 8
  %6 = alloca i64, align 8
  %7 = alloca ptr, align 8
  %8 = alloca i32, align 4
  %9 = alloca ptr, align 8
  %10 = alloca %"class.folly::Range", align 8
  %11 = alloca i32, align 4
  %12 = alloca %"class.folly::basic_fbstring", align 8
  store ptr %0, ptr %4, align 8, !tbaa !7
  store ptr %1, ptr %5, align 8, !tbaa !20
  store i64 %2, ptr %6, align 8, !tbaa !22
  %13 = load ptr, ptr %4, align 8
  %14 = load ptr, ptr %5, align 8, !tbaa !20
  %15 = load i64, ptr %6, align 8, !tbaa !22
  invoke void @_ZN5folly15AsyncFileWriter11writeToFileERKSt6vectorINSt7__cxx1112basic_stringIcSt11char_traitsIcESaIcEEESaIS7_EEm(ptr noundef nonnull align 8 dereferenceable(264) %13, ptr noundef nonnull align 8 dereferenceable(24) %14, i64 noundef %15)
          to label %16 unwind label %17

16:                                               ; preds = %3
  br label %37

17:                                               ; preds = %3
  %18 = landingpad { ptr, i32 }
          catch ptr @_ZTISt9exception
  %19 = extractvalue { ptr, i32 } %18, 0
  store ptr %19, ptr %7, align 8
  %20 = extractvalue { ptr, i32 } %18, 1
  store i32 %20, ptr %8, align 4
  br label %21

21:                                               ; preds = %17
  %22 = load i32, ptr %8, align 4
  %23 = call i32 @llvm.eh.typeid.for.p0(ptr @_ZTISt9exception) #21
  %24 = icmp eq i32 %22, %23
  br i1 %24, label %25, label %48

25:                                               ; preds = %21
  call void @llvm.lifetime.start.p0(i64 8, ptr %9) #21
  %26 = load ptr, ptr %7, align 8
  %27 = call ptr @__cxa_begin_catch(ptr %26) #21
  store ptr %27, ptr %9, align 8
  invoke void @_ZN5folly5RangeIPKcEC2ES2_(ptr noundef nonnull align 8 dereferenceable(16) %10, ptr noundef @.str.5)
          to label %28 unwind label %38

28:                                               ; preds = %25
  call void @llvm.lifetime.start.p0(i64 4, ptr %11) #21
  %29 = getelementptr inbounds nuw %"class.folly::AsyncFileWriter", ptr %13, i32 0, i32 1
  %30 = call noundef i32 @_ZNK5folly4File2fdEv(ptr noundef nonnull align 4 dereferenceable(5) %29)
  store i32 %30, ptr %11, align 4, !tbaa !16
  call void @llvm.lifetime.start.p0(i64 24, ptr %12) #21
  %31 = load ptr, ptr %9, align 8, !tbaa !24
  invoke void @_ZN5folly12exceptionStrERKSt9exception(ptr dead_on_unwind writable sret(%"class.folly::basic_fbstring") align 8 %12, ptr noundef nonnull align 8 dereferenceable(8) %31)
          to label %32 unwind label %42

32:                                               ; preds = %28
  %33 = getelementptr inbounds nuw { ptr, ptr }, ptr %10, i32 0, i32 0
  %34 = load ptr, ptr %33, align 8
  %35 = getelementptr inbounds nuw { ptr, ptr }, ptr %10, i32 0, i32 1
  %36 = load ptr, ptr %35, align 8
  call void @_ZN5folly8LoggerDB15internalWarningIJRA27_KciRA22_S2_NS_14basic_fbstringIcSt11char_traitsIcESaIcENS_13fbstring_coreIcEEEEEEEvNS_5RangeIPS2_EEiDpOT_(ptr %34, ptr %36, i32 noundef 94, ptr noundef nonnull align 1 dereferenceable(27) @.str.6, ptr noundef nonnull align 4 dereferenceable(4) %11, ptr noundef nonnull align 1 dereferenceable(22) @.str.7, ptr noundef nonnull align 8 dereferenceable(24) %12) #21
  call void @_ZN5folly14basic_fbstringIcSt11char_traitsIcESaIcENS_13fbstring_coreIcEEED2Ev(ptr noundef nonnull align 8 dereferenceable(24) %12) #21
  call void @llvm.lifetime.end.p0(i64 24, ptr %12) #21
  call void @llvm.lifetime.end.p0(i64 4, ptr %11) #21
  call void @__cxa_end_catch()
  call void @llvm.lifetime.end.p0(i64 8, ptr %9) #21
  br label %37

37:                                               ; preds = %32, %16
  ret void

38:                                               ; preds = %25
  %39 = landingpad { ptr, i32 }
          cleanup
  %40 = extractvalue { ptr, i32 } %39, 0
  store ptr %40, ptr %7, align 8
  %41 = extractvalue { ptr, i32 } %39, 1
  store i32 %41, ptr %8, align 4
  br label %46

42:                                               ; preds = %28
  %43 = landingpad { ptr, i32 }
          cleanup
  %44 = extractvalue { ptr, i32 } %43, 0
  store ptr %44, ptr %7, align 8
  %45 = extractvalue { ptr, i32 } %43, 1
  store i32 %45, ptr %8, align 4
  call void @llvm.lifetime.end.p0(i64 24, ptr %12) #21
  call void @llvm.lifetime.end.p0(i64 4, ptr %11) #21
  br label %46

46:                                               ; preds = %42, %38
  invoke void @__cxa_end_catch()
          to label %47 unwind label %53

47:                                               ; preds = %46
  call void @llvm.lifetime.end.p0(i64 8, ptr %9) #21
  br label %48

48:                                               ; preds = %47, %21
  %49 = load ptr, ptr %7, align 8
  %50 = load i32, ptr %8, align 4
  %51 = insertvalue { ptr, i32 } poison, ptr %49, 0
  %52 = insertvalue { ptr, i32 } %51, i32 %50, 1
  resume { ptr, i32 } %52

53:                                               ; preds = %46
  %54 = landingpad { ptr, i32 }
          catch ptr null
  %55 = extractvalue { ptr, i32 } %54, 0
  call void @__clang_call_terminate(ptr %55) #23
  unreachable
}