; Function Attrs: mustprogress uwtable
define void @_ZN5folly15AsyncFileWriter9performIOERKSt6vectorINSt7__cxx1112basic_stringIcSt11char_traitsIcESaIcEEESaIS7_EEm(ptr noundef nonnull readonly align 8 captures(none) dereferenceable(264) %0, ptr noundef nonnull readonly align 8 captures(none) dereferenceable(24) %1, i64 noundef %2) unnamed_addr #2 align 2 personality ptr @__gxx_personality_v0 {
  %4 = alloca i32, align 4
  %5 = alloca %"class.folly::basic_fbstring", align 8
  invoke void @_ZN5folly15AsyncFileWriter11writeToFileERKSt6vectorINSt7__cxx1112basic_stringIcSt11char_traitsIcESaIcEEESaIS7_EEm(ptr noundef nonnull align 8 dereferenceable(264) %0, ptr noundef nonnull align 8 dereferenceable(24) %1, i64 noundef %2)
          to label %21 unwind label %6

6:                                                ; preds = %3
  %7 = landingpad { ptr, i32 }
          catch ptr @_ZTISt9exception
  %8 = extractvalue { ptr, i32 } %7, 1
  %9 = tail call i32 @llvm.eh.typeid.for.p0(ptr nonnull @_ZTISt9exception) #22
  %10 = icmp eq i32 %8, %9
  br i1 %10, label %11, label %24

11:                                               ; preds = %6
  %12 = extractvalue { ptr, i32 } %7, 0
  %13 = tail call ptr @__cxa_begin_catch(ptr %12) #22
  call void @llvm.lifetime.start.p0(i64 4, ptr nonnull %4) #22
  %14 = getelementptr inbounds nuw i8, ptr %0, i64 256
  %15 = load i32, ptr %14, align 8, !tbaa !18
  store i32 %15, ptr %4, align 4, !tbaa !22
  call void @llvm.lifetime.start.p0(i64 24, ptr nonnull %5) #22
  invoke void @_ZN5folly12exceptionStrERKSt9exception(ptr dead_on_unwind nonnull writable sret(%"class.folly::basic_fbstring") align 8 %5, ptr noundef nonnull align 8 dereferenceable(8) %13)
          to label %16 unwind label %22

16:                                               ; preds = %11
  call void @_ZN5folly8LoggerDB15internalWarningIJRA27_KciRA22_S2_NS_14basic_fbstringIcSt11char_traitsIcESaIcENS_13fbstring_coreIcEEEEEEEvNS_5RangeIPS2_EEiDpOT_(ptr nonnull @.str.5, ptr nonnull getelementptr inbounds nuw (i8, ptr @.str.5, i64 122), i32 noundef 94, ptr noundef nonnull align 1 dereferenceable(27) @.str.6, ptr noundef nonnull align 4 dereferenceable(4) %4, ptr noundef nonnull align 1 dereferenceable(22) @.str.7, ptr noundef nonnull align 8 dereferenceable(24) %5) #22
  %17 = getelementptr inbounds nuw i8, ptr %5, i64 23
  %18 = load i8, ptr %17, align 1, !tbaa !23
  %19 = icmp ult i8 %18, 64
  br i1 %19, label %_ZN5folly14basic_fbstringIcSt11char_traitsIcESaIcENS_13fbstring_coreIcEEED2Ev.exit, label %20

20:                                               ; preds = %16
  call void @_ZN5folly13fbstring_coreIcE18destroyMediumLargeEv(ptr noundef nonnull align 8 dereferenceable(24) %5) #22
  br label %_ZN5folly14basic_fbstringIcSt11char_traitsIcESaIcENS_13fbstring_coreIcEEED2Ev.exit

_ZN5folly14basic_fbstringIcSt11char_traitsIcESaIcENS_13fbstring_coreIcEEED2Ev.exit: ; preds = %16, %20
  call void @llvm.lifetime.end.p0(i64 24, ptr nonnull %5) #22
  call void @llvm.lifetime.end.p0(i64 4, ptr nonnull %4) #22
  call void @__cxa_end_catch()
  br label %21

21:                                               ; preds = %3, %_ZN5folly14basic_fbstringIcSt11char_traitsIcESaIcENS_13fbstring_coreIcEEED2Ev.exit
  ret void

22:                                               ; preds = %11
  %23 = landingpad { ptr, i32 }
          cleanup
  call void @llvm.lifetime.end.p0(i64 24, ptr nonnull %5) #22
  call void @llvm.lifetime.end.p0(i64 4, ptr nonnull %4) #22
  invoke void @__cxa_end_catch()
          to label %24 unwind label %25

24:                                               ; preds = %22, %6
  %.merged = phi { ptr, i32 } [ %7, %6 ], [ %23, %22 ]
  resume { ptr, i32 } %.merged

25:                                               ; preds = %22
  %26 = landingpad { ptr, i32 }
          catch ptr null
  %27 = extractvalue { ptr, i32 } %26, 0
  call void @__clang_call_terminate(ptr %27) #24
  unreachable
}